; Function Attrs: mustprogress uwtable
define void @_ZN6icu_7514SimpleTimeZoneC2EiRKNS_13UnicodeStringEaaaiaaaiR10UErrorCode(ptr noundef nonnull align 8 dereferenceable(160) %this, i32 noundef %rawOffsetGMT, ptr noundef nonnull align 8 dereferenceable(64) %ID, i8 noundef signext %savingsStartMonth, i8 noundef signext %savingsStartDay, i8 noundef signext %savingsStartDayOfWeek, i32 noundef %savingsStartTime, i8 noundef signext %savingsEndMonth, i8 noundef signext %savingsEndDay, i8 noundef signext %savingsEndDayOfWeek, i32 noundef %savingsEndTime, ptr nocapture noundef nonnull align 4 dereferenceable(4) %status) unnamed_addr #1 align 2 personality ptr @__gxx_personality_v0 {
invoke.cont2:
  tail call void @_ZN6icu_7513BasicTimeZoneC2ERKNS_13UnicodeStringE(ptr noundef nonnull align 8 dereferenceable(72) %this, ptr noundef nonnull align 8 dereferenceable(64) %ID)
  store ptr getelementptr inbounds ({ [24 x ptr] }, ptr @_ZTVN6icu_7514SimpleTimeZoneE, i64 0, i32 0, i64 2), ptr %this, align 8
  %initialRule.i = getelementptr inbounds i8, ptr %this, i64 128
  %transitionRulesInitialized.i = getelementptr inbounds i8, ptr %this, i64 120
  store i8 0, ptr %transitionRulesInitialized.i, align 8
  tail call void @llvm.memset.p0.i64(ptr noundef nonnull align 8 dereferenceable(32) %initialRule.i, i8 0, i64 32, i1 false)
  %rawOffset.i = getelementptr inbounds i8, ptr %this, i64 100
  store i32 %rawOffsetGMT, ptr %rawOffset.i, align 4
  %startMonth.i = getelementptr inbounds i8, ptr %this, i64 72
  store i8 %savingsStartMonth, ptr %startMonth.i, align 8
  %startDay.i = getelementptr inbounds i8, ptr %this, i64 73
  store i8 %savingsStartDay, ptr %startDay.i, align 1
  %startDayOfWeek.i = getelementptr inbounds i8, ptr %this, i64 74
  store i8 %savingsStartDayOfWeek, ptr %startDayOfWeek.i, align 2
  %startTime.i = getelementptr inbounds i8, ptr %this, i64 76
  store i32 %savingsStartTime, ptr %startTime.i, align 4
  %startTimeMode.i = getelementptr inbounds i8, ptr %this, i64 80
  store i32 0, ptr %startTimeMode.i, align 8
  %endMonth.i = getelementptr inbounds i8, ptr %this, i64 88
  store i8 %savingsEndMonth, ptr %endMonth.i, align 8
  %endDay.i = getelementptr inbounds i8, ptr %this, i64 89
  store i8 %savingsEndDay, ptr %endDay.i, align 1
  %endDayOfWeek.i = getelementptr inbounds i8, ptr %this, i64 90
  store i8 %savingsEndDayOfWeek, ptr %endDayOfWeek.i, align 2
  %endTime.i = getelementptr inbounds i8, ptr %this, i64 92
  store i32 %savingsEndTime, ptr %endTime.i, align 4
  %endTimeMode.i = getelementptr inbounds i8, ptr %this, i64 84
  store i32 0, ptr %endTimeMode.i, align 4
  %dstSavings.i = getelementptr inbounds i8, ptr %this, i64 116
  store i32 3600000, ptr %dstSavings.i, align 4
  %startYear.i = getelementptr inbounds i8, ptr %this, i64 96
  store i32 0, ptr %startYear.i, align 8
  %startMode.i = getelementptr inbounds i8, ptr %this, i64 108
  store i32 1, ptr %startMode.i, align 4
  %endMode.i = getelementptr inbounds i8, ptr %this, i64 112
  store i32 1, ptr %endMode.i, align 8
  tail call void @_ZN6icu_7514SimpleTimeZone11decodeRulesER10UErrorCode(ptr noundef nonnull align 8 dereferenceable(160) %this, ptr noundef nonnull align 4 dereferenceable(4) %status)
  ret void
}